target datalayout = "e-m:e-p270:32:32-p271:32:32-p272:64:64-i64:64-i128:128-f80:128-n8:16:32:64-S128"
target triple = "x86_64-pc-linux-gnu"

%"struct.faiss::OnDiskInvertedLists" = type <{ %"struct.faiss::InvertedLists.base", [7 x i8], %"class.std::vector.5", %"class.std::__cxx11::list", %"class.std::__cxx11::basic_string", i64, ptr, i8, [7 x i8], ptr, ptr, i32, [4 x i8] }>
%"struct.faiss::InvertedLists.base" = type <{ ptr, i64, i64, i8 }>
%"class.std::vector.5" = type { %"struct.std::_Vector_base.6" }
%"struct.std::_Vector_base.6" = type { %"struct.std::_Vector_base<faiss::OnDiskOneList, std::allocator<faiss::OnDiskOneList>>::_Vector_impl" }
%"struct.std::_Vector_base<faiss::OnDiskOneList, std::allocator<faiss::OnDiskOneList>>::_Vector_impl" = type { %"struct.std::_Vector_base<faiss::OnDiskOneList, std::allocator<faiss::OnDiskOneList>>::_Vector_impl_data" }
%"struct.std::_Vector_base<faiss::OnDiskOneList, std::allocator<faiss::OnDiskOneList>>::_Vector_impl_data" = type { ptr, ptr, ptr }
%"class.std::__cxx11::list" = type { %"class.std::__cxx11::_List_base" }
%"class.std::__cxx11::_List_base" = type { %"struct.std::__cxx11::_List_base<faiss::OnDiskInvertedLists::Slot, std::allocator<faiss::OnDiskInvertedLists::Slot>>::_List_impl" }
%"struct.std::__cxx11::_List_base<faiss::OnDiskInvertedLists::Slot, std::allocator<faiss::OnDiskInvertedLists::Slot>>::_List_impl" = type { %"struct.std::__detail::_List_node_header" }
%"struct.std::__detail::_List_node_header" = type { %"struct.std::__detail::_List_node_base", i64 }
%"struct.std::__detail::_List_node_base" = type { ptr, ptr }
%"class.std::__cxx11::basic_string" = type { %"struct.std::__cxx11::basic_string<char>::_Alloc_hider", i64, %union.anon }
%"struct.std::__cxx11::basic_string<char>::_Alloc_hider" = type { ptr }
%union.anon = type { i64, [8 x i8] }
%"struct.faiss::OnDiskOneList" = type { i64, i64, i64 }
%"struct.faiss::InvertedLists" = type <{ ptr, i64, i64, i8, [7 x i8] }>

@.str.6 = private unnamed_addr constant [128 x i8] c"generated/home/dtcxzyw/WorkSpace/Projects/compilers/llvm-opt-benchmark/bench/faiss/faiss/faiss/invlists/OnDiskInvertedLists.cpp\00", align 1
@_ZTIN5faiss14FaissExceptionE = external constant ptr
@.str.18 = private unnamed_addr constant [19 x i8] c"Error: '%s' failed\00", align 1
@.str.19 = private unnamed_addr constant [11 x i8] c"!read_only\00", align 1
@__PRETTY_FUNCTION__._ZN5faiss19OnDiskInvertedLists14update_entriesEmmmPKlPKh = private unnamed_addr constant [112 x i8] c"virtual void faiss::OnDiskInvertedLists::update_entries(size_t, size_t, size_t, const idx_t *, const uint8_t *)\00", align 1

; Function Attrs: mustprogress nounwind uwtable
define linkonce_odr noundef nonnull align 8 dereferenceable(24) ptr @_ZNSt6vectorIN5faiss13OnDiskOneListESaIS1_EEixEm(ptr noundef nonnull align 8 dereferenceable(24) %0, i64 noundef %1) #0 comdat align 2 {
  %3 = alloca ptr, align 8
  %4 = alloca i64, align 8
  store ptr %0, ptr %3, align 8
  store i64 %1, ptr %4, align 8
  %5 = load ptr, ptr %3, align 8
  %6 = getelementptr inbounds %"struct.std::_Vector_base.6", ptr %5, i32 0, i32 0
  %7 = getelementptr inbounds %"struct.std::_Vector_base<faiss::OnDiskOneList, std::allocator<faiss::OnDiskOneList>>::_Vector_impl_data", ptr %6, i32 0, i32 0
  %8 = load ptr, ptr %7, align 8
  %9 = load i64, ptr %4, align 8
  %10 = getelementptr inbounds %"struct.faiss::OnDiskOneList", ptr %8, i64 %9
  ret ptr %10
}

; Function Attrs: mustprogress uwtable
define void @_ZN5faiss19OnDiskInvertedLists14update_entriesEmmmPKlPKh(ptr noundef nonnull align 8 dereferenceable(156) %0, i64 noundef %1, i64 noundef %2, i64 noundef %3, ptr noundef %4, ptr noundef %5) unnamed_addr #2 align 2 personality ptr @__gxx_personality_v0 {
  %7 = alloca ptr, align 8
  %8 = alloca i64, align 8
  %9 = alloca i64, align 8
  %10 = alloca i64, align 8
  %11 = alloca ptr, align 8
  %12 = alloca ptr, align 8
  %13 = alloca %"class.std::__cxx11::basic_string", align 8
  %14 = alloca i32, align 4
  %15 = alloca ptr, align 8
  %16 = alloca i32, align 4
  %17 = alloca ptr, align 8
  %18 = alloca ptr, align 8
  %19 = alloca ptr, align 8
  store ptr %0, ptr %7, align 8
  store i64 %1, ptr %8, align 8
  store i64 %2, ptr %9, align 8
  store i64 %3, ptr %10, align 8
  store ptr %4, ptr %11, align 8
  store ptr %5, ptr %12, align 8
  %20 = load ptr, ptr %7, align 8
  br label %21

21:                                               ; preds = %6
  %22 = getelementptr inbounds %"struct.faiss::OnDiskInvertedLists", ptr %20, i32 0, i32 7
  %23 = load i8, ptr %22, align 8
  %24 = trunc i8 %23 to i1
  br i1 %24, label %25, label %48

25:                                               ; preds = %21
  br label %26

26:                                               ; preds = %25
  call void @_ZNSt7__cxx1112basic_stringIcSt11char_traitsIcESaIcEEC1Ev(ptr noundef nonnull align 8 dereferenceable(32) %13) #13
  %27 = call i32 (ptr, i64, ptr, ...) @snprintf(ptr noundef null, i64 noundef 0, ptr noundef @.str.18, ptr noundef @.str.19) #13
  store i32 %27, ptr %14, align 4
  %28 = load i32, ptr %14, align 4
  %29 = add nsw i32 %28, 1
  %30 = sext i32 %29 to i64
  invoke void @_ZNSt7__cxx1112basic_stringIcSt11char_traitsIcESaIcEE6resizeEm(ptr noundef nonnull align 8 dereferenceable(32) %13, i64 noundef %30)
          to label %31 unwind label %38

31:                                               ; preds = %26
  %32 = invoke noundef nonnull align 1 dereferenceable(1) ptr @_ZNSt7__cxx1112basic_stringIcSt11char_traitsIcESaIcEEixEm(ptr noundef nonnull align 8 dereferenceable(32) %13, i64 noundef 0)
          to label %33 unwind label %38

33:                                               ; preds = %31
  %34 = call noundef i64 @_ZNKSt7__cxx1112basic_stringIcSt11char_traitsIcESaIcEE4sizeEv(ptr noundef nonnull align 8 dereferenceable(32) %13) #13
  %35 = call i32 (ptr, i64, ptr, ...) @snprintf(ptr noundef %32, i64 noundef %34, ptr noundef @.str.18, ptr noundef @.str.19) #13
  %36 = call ptr @__cxa_allocate_exception(i64 40) #13
  invoke void @_ZN5faiss14FaissExceptionC1ERKNSt7__cxx1112basic_stringIcSt11char_traitsIcESaIcEEEPKcSA_i(ptr noundef nonnull align 8 dereferenceable(40) %36, ptr noundef nonnull align 8 dereferenceable(32) %13, ptr noundef @__PRETTY_FUNCTION__._ZN5faiss19OnDiskInvertedLists14update_entriesEmmmPKlPKh, ptr noundef @.str.6, i32 noundef 407)
          to label %37 unwind label %42

37:                                               ; preds = %33
  invoke void @__cxa_throw(ptr %36, ptr @_ZTIN5faiss14FaissExceptionE, ptr @_ZN5faiss14FaissExceptionD2Ev) #19
          to label %90 unwind label %38

38:                                               ; preds = %37, %31, %26
  %39 = landingpad { ptr, i32 }
          cleanup
  %40 = extractvalue { ptr, i32 } %39, 0
  store ptr %40, ptr %15, align 8
  %41 = extractvalue { ptr, i32 } %39, 1
  store i32 %41, ptr %16, align 4
  br label %46

42:                                               ; preds = %33
  %43 = landingpad { ptr, i32 }
          cleanup
  %44 = extractvalue { ptr, i32 } %43, 0
  store ptr %44, ptr %15, align 8
  %45 = extractvalue { ptr, i32 } %43, 1
  store i32 %45, ptr %16, align 4
  call void @__cxa_free_exception(ptr %36) #13
  br label %46

46:                                               ; preds = %42, %38
  call void @_ZNSt7__cxx1112basic_stringIcSt11char_traitsIcESaIcEED1Ev(ptr noundef nonnull align 8 dereferenceable(32) %13) #13
  br label %85

47:                                               ; No predecessors!
  br label %48

48:                                               ; preds = %47, %21
  br label %49

49:                                               ; preds = %48
  %50 = load i64, ptr %10, align 8
  %51 = icmp eq i64 %50, 0
  br i1 %51, label %52, label %53

52:                                               ; preds = %49
  br label %84

53:                                               ; preds = %49
  %54 = getelementptr inbounds %"struct.faiss::OnDiskInvertedLists", ptr %20, i32 0, i32 2
  %55 = load i64, ptr %8, align 8
  %56 = call noundef nonnull align 8 dereferenceable(24) ptr @_ZNSt6vectorIN5faiss13OnDiskOneListESaIS1_EEixEm(ptr noundef nonnull align 8 dereferenceable(24) %54, i64 noundef %55) #13
  store ptr %56, ptr %17, align 8
  %57 = load i64, ptr %8, align 8
  %58 = load ptr, ptr %20, align 8
  %59 = getelementptr inbounds ptr, ptr %58, i64 5
  %60 = load ptr, ptr %59, align 8
  %61 = call noundef ptr %60(ptr noundef nonnull align 8 dereferenceable(156) %20, i64 noundef %57)
  store ptr %61, ptr %18, align 8
  %62 = load ptr, ptr %18, align 8
  %63 = load i64, ptr %9, align 8
  %64 = getelementptr inbounds i64, ptr %62, i64 %63
  %65 = load ptr, ptr %11, align 8
  %66 = load i64, ptr %10, align 8
  %67 = mul i64 8, %66
  call void @llvm.memcpy.p0.p0.i64(ptr align 8 %64, ptr align 8 %65, i64 %67, i1 false)
  %68 = load i64, ptr %8, align 8
  %69 = load ptr, ptr %20, align 8
  %70 = getelementptr inbounds ptr, ptr %69, i64 4
  %71 = load ptr, ptr %70, align 8
  %72 = call noundef ptr %71(ptr noundef nonnull align 8 dereferenceable(156) %20, i64 noundef %68)
  store ptr %72, ptr %19, align 8
  %73 = load ptr, ptr %19, align 8
  %74 = load i64, ptr %9, align 8
  %75 = getelementptr inbounds %"struct.faiss::InvertedLists", ptr %20, i32 0, i32 2
  %76 = load i64, ptr %75, align 8
  %77 = mul i64 %74, %76
  %78 = getelementptr inbounds i8, ptr %73, i64 %77
  %79 = load ptr, ptr %12, align 8
  %80 = getelementptr inbounds %"struct.faiss::InvertedLists", ptr %20, i32 0, i32 2
  %81 = load i64, ptr %80, align 8
  %82 = load i64, ptr %10, align 8
  %83 = mul i64 %81, %82
  call void @llvm.memcpy.p0.p0.i64(ptr align 1 %78, ptr align 1 %79, i64 %83, i1 false)
  br label %84

84:                                               ; preds = %53, %52
  ret void

85:                                               ; preds = %46
  %86 = load ptr, ptr %15, align 8
  %87 = load i32, ptr %16, align 4
  %88 = insertvalue { ptr, i32 } poison, ptr %86, 0
  %89 = insertvalue { ptr, i32 } %88, i32 %87, 1
  resume { ptr, i32 } %89

90:                                               ; preds = %37
  unreachable
}