; Function Attrs: mustprogress uwtable
define void @_ZN5faiss19OnDiskInvertedLists14update_entriesEmmmPKlPKh(ptr noundef nonnull align 8 dereferenceable(156) %0, i64 noundef %1, i64 noundef %2, i64 noundef %3, ptr nocapture noundef readonly %4, ptr nocapture noundef readonly %5) unnamed_addr #3 align 2 personality ptr @__gxx_personality_v0 {
  %7 = alloca %"class.std::__cxx11::basic_string", align 8
  %8 = getelementptr inbounds i8, ptr %0, i64 128
  %9 = load i8, ptr %8, align 8
  %10 = and i8 %9, 1
  %.not = icmp eq i8 %10, 0
  br i1 %.not, label %27, label %11

11:                                               ; preds = %6
  call void @_ZNSt7__cxx1112basic_stringIcSt11char_traitsIcESaIcEEC1Ev(ptr noundef nonnull align 8 dereferenceable(32) %7) #16
  %12 = call i32 (ptr, i64, ptr, ...) @snprintf(ptr noundef null, i64 noundef 0, ptr noundef nonnull @.str.18, ptr noundef nonnull @.str.19) #16
  %13 = add nsw i32 %12, 1
  %14 = sext i32 %13 to i64
  invoke void @_ZNSt7__cxx1112basic_stringIcSt11char_traitsIcESaIcEE6resizeEm(ptr noundef nonnull align 8 dereferenceable(32) %7, i64 noundef %14)
          to label %15 unwind label %22

15:                                               ; preds = %11
  %16 = invoke noundef nonnull align 1 dereferenceable(1) ptr @_ZNSt7__cxx1112basic_stringIcSt11char_traitsIcESaIcEEixEm(ptr noundef nonnull align 8 dereferenceable(32) %7, i64 noundef 0)
          to label %17 unwind label %22

17:                                               ; preds = %15
  %18 = call noundef i64 @_ZNKSt7__cxx1112basic_stringIcSt11char_traitsIcESaIcEE4sizeEv(ptr noundef nonnull align 8 dereferenceable(32) %7) #16
  %19 = call i32 (ptr, i64, ptr, ...) @snprintf(ptr noundef nonnull %16, i64 noundef %18, ptr noundef nonnull @.str.18, ptr noundef nonnull @.str.19) #16
  %20 = call ptr @__cxa_allocate_exception(i64 40) #16
  invoke void @_ZN5faiss14FaissExceptionC1ERKNSt7__cxx1112basic_stringIcSt11char_traitsIcESaIcEEEPKcSA_i(ptr noundef nonnull align 8 dereferenceable(40) %20, ptr noundef nonnull align 8 dereferenceable(32) %7, ptr noundef nonnull @__PRETTY_FUNCTION__._ZN5faiss19OnDiskInvertedLists14update_entriesEmmmPKlPKh, ptr noundef nonnull @.str.6, i32 noundef 407)
          to label %21 unwind label %24

21:                                               ; preds = %17
  invoke void @__cxa_throw(ptr nonnull %20, ptr nonnull @_ZTIN5faiss14FaissExceptionE, ptr nonnull @_ZN5faiss14FaissExceptionD2Ev) #25
          to label %46 unwind label %22

22:                                               ; preds = %21, %15, %11
  %23 = landingpad { ptr, i32 }
          cleanup
  br label %26

24:                                               ; preds = %17
  %25 = landingpad { ptr, i32 }
          cleanup
  call void @__cxa_free_exception(ptr %20) #16
  br label %26

26:                                               ; preds = %24, %22
  %.pn = phi { ptr, i32 } [ %23, %22 ], [ %25, %24 ]
  call void @_ZNSt7__cxx1112basic_stringIcSt11char_traitsIcESaIcEED1Ev(ptr noundef nonnull align 8 dereferenceable(32) %7) #16
  resume { ptr, i32 } %.pn

27:                                               ; preds = %6
  %28 = icmp eq i64 %3, 0
  br i1 %28, label %45, label %29

29:                                               ; preds = %27
  %30 = load ptr, ptr %0, align 8
  %31 = getelementptr inbounds i8, ptr %30, i64 40
  %32 = load ptr, ptr %31, align 8
  %33 = tail call noundef ptr %32(ptr noundef nonnull align 8 dereferenceable(156) %0, i64 noundef %1)
  %34 = getelementptr inbounds i64, ptr %33, i64 %2
  %35 = shl i64 %3, 3
  tail call void @llvm.memcpy.p0.p0.i64(ptr align 8 %34, ptr align 8 %4, i64 %35, i1 false)
  %36 = load ptr, ptr %0, align 8
  %37 = getelementptr inbounds i8, ptr %36, i64 32
  %38 = load ptr, ptr %37, align 8
  %39 = tail call noundef ptr %38(ptr noundef nonnull align 8 dereferenceable(156) %0, i64 noundef %1)
  %40 = getelementptr inbounds i8, ptr %0, i64 16
  %41 = load i64, ptr %40, align 8
  %42 = mul i64 %41, %2
  %43 = getelementptr inbounds i8, ptr %39, i64 %42
  %44 = mul i64 %41, %3
  tail call void @llvm.memcpy.p0.p0.i64(ptr align 1 %43, ptr align 1 %5, i64 %44, i1 false)
  br label %45

45:                                               ; preds = %27, %29
  ret void

46:                                               ; preds = %21
  unreachable
}